target datalayout = "e-m:e-p270:32:32-p271:32:32-p272:64:64-i64:64-i128:128-f80:128-n8:16:32:64-S128"
target triple = "x86_64-pc-linux-gnu"

%struct.rlimit = type { i64, i64 }

@PyExc_ValueError = external global ptr, align 8
@PyExc_OSError = external global ptr, align 8
@.str.8 = private unnamed_addr constant [27 x i8] c"invalid resource specified\00", align 1
@.str.9 = private unnamed_addr constant [3 x i8] c"ll\00", align 1

; Function Attrs: nounwind uwtable
define internal ptr @rlimit2py(i64 %0, i64 %1) #0 {
  %3 = alloca %struct.rlimit, align 8
  %4 = getelementptr inbounds nuw { i64, i64 }, ptr %3, i32 0, i32 0
  store i64 %0, ptr %4, align 8
  %5 = getelementptr inbounds nuw { i64, i64 }, ptr %3, i32 0, i32 1
  store i64 %1, ptr %5, align 8
  %6 = getelementptr inbounds nuw %struct.rlimit, ptr %3, i32 0, i32 0
  %7 = load i64, ptr %6, align 8, !tbaa !28
  %8 = getelementptr inbounds nuw %struct.rlimit, ptr %3, i32 0, i32 1
  %9 = load i64, ptr %8, align 8, !tbaa !30
  %10 = call ptr (ptr, ...) @Py_BuildValue(ptr noundef @.str.9, i64 noundef %7, i64 noundef %9)
  ret ptr %10
}

; Function Attrs: nounwind uwtable
define internal ptr @resource_getrlimit_impl(ptr noundef %0, i32 noundef %1) #0 {
  %3 = alloca ptr, align 8
  %4 = alloca ptr, align 8
  %5 = alloca i32, align 4
  %6 = alloca %struct.rlimit, align 8
  %7 = alloca i32, align 4
  store ptr %0, ptr %4, align 8, !tbaa !3
  store i32 %1, ptr %5, align 4, !tbaa !12
  call void @llvm.lifetime.start.p0(i64 16, ptr %6) #7
  %8 = load i32, ptr %5, align 4, !tbaa !12
  %9 = icmp slt i32 %8, 0
  br i1 %9, label %13, label %10

10:                                               ; preds = %2
  %11 = load i32, ptr %5, align 4, !tbaa !12
  %12 = icmp sge i32 %11, 16
  br i1 %12, label %13, label %15

13:                                               ; preds = %10, %2
  %14 = load ptr, ptr @PyExc_ValueError, align 8, !tbaa !3
  call void @PyErr_SetString(ptr noundef %14, ptr noundef @.str.8)
  store ptr null, ptr %3, align 8
  store i32 1, ptr %7, align 4
  br label %28

15:                                               ; preds = %10
  %16 = load i32, ptr %5, align 4, !tbaa !12
  %17 = call i32 @getrlimit64(i32 noundef %16, ptr noundef %6) #7
  %18 = icmp eq i32 %17, -1
  br i1 %18, label %19, label %22

19:                                               ; preds = %15
  %20 = load ptr, ptr @PyExc_OSError, align 8, !tbaa !3
  %21 = call ptr @PyErr_SetFromErrno(ptr noundef %20)
  store ptr null, ptr %3, align 8
  store i32 1, ptr %7, align 4
  br label %28

22:                                               ; preds = %15
  %23 = getelementptr inbounds nuw { i64, i64 }, ptr %6, i32 0, i32 0
  %24 = load i64, ptr %23, align 8
  %25 = getelementptr inbounds nuw { i64, i64 }, ptr %6, i32 0, i32 1
  %26 = load i64, ptr %25, align 8
  %27 = call ptr @rlimit2py(i64 %24, i64 %26)
  store ptr %27, ptr %3, align 8
  store i32 1, ptr %7, align 4
  br label %28

28:                                               ; preds = %22, %19, %13
  call void @llvm.lifetime.end.p0(i64 16, ptr %6) #7
  %29 = load ptr, ptr %3, align 8
  ret ptr %29
}

; Function Attrs: nounwind uwtable
define internal ptr @resource_getrlimit(ptr noundef %0, ptr noundef %1) #0 {
  %3 = alloca ptr, align 8
  %4 = alloca ptr, align 8
  %5 = alloca ptr, align 8
  %6 = alloca i32, align 4
  store ptr %0, ptr %3, align 8, !tbaa !3
  store ptr %1, ptr %4, align 8, !tbaa !3
  call void @llvm.lifetime.start.p0(i64 8, ptr %5) #7
  store ptr null, ptr %5, align 8, !tbaa !3
  call void @llvm.lifetime.start.p0(i64 4, ptr %6) #7
  %7 = load ptr, ptr %4, align 8, !tbaa !3
  %8 = call i32 @PyLong_AsInt(ptr noundef %7)
  store i32 %8, ptr %6, align 4, !tbaa !12
  %9 = load i32, ptr %6, align 4, !tbaa !12
  %10 = icmp eq i32 %9, -1
  br i1 %10, label %11, label %15

11:                                               ; preds = %2
  %12 = call ptr @PyErr_Occurred()
  %13 = icmp ne ptr %12, null
  br i1 %13, label %14, label %15

14:                                               ; preds = %11
  br label %19

15:                                               ; preds = %11, %2
  %16 = load ptr, ptr %3, align 8, !tbaa !3
  %17 = load i32, ptr %6, align 4, !tbaa !12
  %18 = call ptr @resource_getrlimit_impl(ptr noundef %16, i32 noundef %17)
  store ptr %18, ptr %5, align 8, !tbaa !3
  br label %19

19:                                               ; preds = %15, %14
  %20 = load ptr, ptr %5, align 8, !tbaa !3
  call void @llvm.lifetime.end.p0(i64 4, ptr %6) #7
  call void @llvm.lifetime.end.p0(i64 8, ptr %5) #7
  ret ptr %20
}