; Function Attrs: nounwind uwtable
define internal ptr @resource_getrlimit(ptr readnone captures(none) %0, ptr noundef %1) #0 {
  %3 = alloca %struct.rlimit, align 8
  %4 = tail call i32 @PyLong_AsInt(ptr noundef %1) #6
  %5 = icmp eq i32 %4, -1
  br i1 %5, label %19, label %.split

.split:                                           ; preds = %2
  call void @llvm.lifetime.start.p0(i64 16, ptr nonnull %3) #6
  %or.cond.i = icmp ugt i32 %4, 15
  br i1 %or.cond.i, label %6, label %8

6:                                                ; preds = %.split
  %7 = load ptr, ptr @PyExc_ValueError, align 8, !tbaa !10
  tail call void @PyErr_SetString(ptr noundef %7, ptr noundef nonnull @.str.8) #6
  br label %resource_getrlimit_impl.exit

8:                                                ; preds = %.split
  %9 = call i32 @getrlimit64(i32 noundef %4, ptr noundef nonnull %3) #6
  %10 = icmp eq i32 %9, -1
  br i1 %10, label %11, label %14

11:                                               ; preds = %8
  %12 = load ptr, ptr @PyExc_OSError, align 8, !tbaa !10
  %13 = call ptr @PyErr_SetFromErrno(ptr noundef %12) #6
  br label %resource_getrlimit_impl.exit

14:                                               ; preds = %8
  %15 = load i64, ptr %3, align 8
  %16 = getelementptr inbounds nuw i8, ptr %3, i64 8
  %17 = load i64, ptr %16, align 8
  %18 = call ptr (ptr, ...) @Py_BuildValue(ptr noundef nonnull @.str.9, i64 noundef %15, i64 noundef %17) #6
  br label %resource_getrlimit_impl.exit

resource_getrlimit_impl.exit:                     ; preds = %6, %11, %14
  %.0.i = phi ptr [ null, %6 ], [ null, %11 ], [ %18, %14 ]
  call void @llvm.lifetime.end.p0(i64 16, ptr nonnull %3) #6
  br label %22

19:                                               ; preds = %2
  %20 = tail call ptr @PyErr_Occurred() #6
  %.not = icmp eq ptr %20, null
  br i1 %.not, label %.split4, label %22

.split4:                                          ; preds = %19
  %21 = load ptr, ptr @PyExc_ValueError, align 8, !tbaa !10
  tail call void @PyErr_SetString(ptr noundef %21, ptr noundef nonnull @.str.8) #6
  br label %22

22:                                               ; preds = %resource_getrlimit_impl.exit, %.split4, %19
  %.0 = phi ptr [ null, %19 ], [ %.0.i, %resource_getrlimit_impl.exit ], [ null, %.split4 ]
  ret ptr %.0
}